; Function Attrs: nounwind uwtable
define range(i32 -21, 1) i32 @CVodeSensToggleOff(ptr noundef writeonly captures(address_is_null) %0) local_unnamed_addr #0 {
  %2 = icmp eq ptr %0, null
  br i1 %2, label %3, label %4

3:                                                ; preds = %1
  tail call void (ptr, i32, ptr, ptr, ptr, ...) @cvProcessError(ptr noundef null, i32 noundef -21, ptr noundef nonnull @.str, ptr noundef nonnull @.str.52, ptr noundef nonnull @.str.6)
  br label %7

4:                                                ; preds = %1
  %5 = getelementptr inbounds nuw i8, ptr %0, i64 136
  store i32 0, ptr %5, align 8, !tbaa !144
  %6 = getelementptr inbounds nuw i8, ptr %0, i64 256
  store i32 0, ptr %6, align 8, !tbaa !184
  br label %7

7:                                                ; preds = %4, %3
  %.0 = phi i32 [ -21, %3 ], [ 0, %4 ]
  ret i32 %.0
}